; Function Attrs: null_pointer_is_valid sspstrong uwtable
define internal i32 @dissect_l2rcop(ptr noundef %0, ptr noundef %1, ptr noundef %2, ptr readnone captures(none) %3) #0 {
  %5 = tail call i32 @tvb_reported_length(ptr noundef %0)
  %.not = icmp eq i32 %5, 0
  br i1 %.not, label %.thread, label %.lr.ph

.lr.ph:                                           ; preds = %4, %44
  %.07186 = phi i32 [ %48, %44 ], [ 0, %4 ]
  %6 = tail call zeroext i8 @tvb_get_uint8(ptr noundef %0, i32 noundef %.07186)
  %7 = zext i8 %6 to i32
  %8 = and i8 %6, 31
  %9 = zext nneg i8 %8 to i32
  %10 = tail call ptr @val_to_str(i32 noundef %9, ptr noundef nonnull @addr_vals, ptr noundef nonnull @.str.23)
  %11 = load i32, ptr @proto_l2rcop, align 4
  %12 = tail call ptr (ptr, i32, ptr, i32, i32, ptr, ...) @proto_tree_add_protocol_format(ptr noundef %2, i32 noundef %11, ptr noundef %0, i32 noundef 0, i32 noundef %5, ptr noundef nonnull @.str.24, i32 noundef %7, ptr noundef %10)
  %13 = load i32, ptr @ett_l2rcop, align 4
  %14 = tail call ptr @proto_item_add_subtree(ptr noundef %12, i32 noundef %13)
  %15 = load i32, ptr @hf_l2rcop_sa, align 4
  %16 = tail call ptr @proto_tree_add_item(ptr noundef %14, i32 noundef %15, ptr noundef %0, i32 noundef %.07186, i32 noundef 1, i32 noundef 0)
  %17 = load i32, ptr @hf_l2rcop_sb, align 4
  %18 = tail call ptr @proto_tree_add_item(ptr noundef %14, i32 noundef %17, ptr noundef %0, i32 noundef %.07186, i32 noundef 1, i32 noundef 0)
  %19 = load i32, ptr @hf_l2rcop_x, align 4
  %20 = tail call ptr @proto_tree_add_item(ptr noundef %14, i32 noundef %19, ptr noundef %0, i32 noundef %.07186, i32 noundef 1, i32 noundef 0)
  %21 = load i32, ptr @hf_l2rcop_addr, align 4
  %22 = tail call ptr @proto_tree_add_item(ptr noundef %14, i32 noundef %21, ptr noundef %0, i32 noundef %.07186, i32 noundef 1, i32 noundef 0)
  switch i8 %8, label %44 [
    i8 31, label %.thread
    i8 30, label %23
    i8 29, label %29
    i8 28, label %32
    i8 27, label %35
    i8 0, label %.thread
  ]

23:                                               ; preds = %.lr.ph
  %24 = add nuw i32 %.07186, 1
  %25 = xor i32 %.07186, -1
  %26 = add i32 %5, %25
  %27 = tail call ptr @tvb_new_subset_length(ptr noundef %0, i32 noundef %24, i32 noundef %26)
  %28 = tail call i32 @call_data_dissector(ptr noundef %27, ptr noundef %1, ptr noundef %14)
  br label %.thread

29:                                               ; preds = %.lr.ph
  %30 = load i32, ptr @hf_l2rcop_break, align 4
  %31 = tail call ptr @proto_tree_add_item(ptr noundef %14, i32 noundef %30, ptr noundef %0, i32 noundef %.07186, i32 noundef 1, i32 noundef 0)
  br label %.thread

32:                                               ; preds = %.lr.ph
  %33 = load i32, ptr @hf_l2rcop_break_ack, align 4
  %34 = tail call ptr @proto_tree_add_item(ptr noundef %14, i32 noundef %33, ptr noundef %0, i32 noundef %.07186, i32 noundef 1, i32 noundef 0)
  br label %.thread

35:                                               ; preds = %.lr.ph
  %36 = add nuw i32 %.07186, 1
  %37 = tail call zeroext i8 @tvb_get_uint8(ptr noundef %0, i32 noundef %36)
  %38 = and i8 %37, 63
  %39 = icmp eq i8 %38, 0
  br i1 %39, label %.thread, label %40

40:                                               ; preds = %35
  %41 = zext nneg i8 %38 to i32
  %42 = load i32, ptr @hf_l2rcop_addr, align 4
  %43 = tail call ptr @proto_tree_add_uint(ptr noundef %14, i32 noundef %42, ptr noundef %0, i32 noundef %36, i32 noundef 1, i32 noundef %41)
  br label %44

44:                                               ; preds = %.lr.ph, %40
  %.sink106 = phi i32 [ 2, %40 ], [ 1, %.lr.ph ]
  %.sink105 = phi i32 [ %41, %40 ], [ %9, %.lr.ph ]
  %45 = add i32 %.07186, %.sink106
  %46 = tail call ptr @tvb_new_subset_length(ptr noundef %0, i32 noundef %45, i32 noundef %.sink105)
  %47 = tail call i32 @call_data_dissector(ptr noundef %46, ptr noundef %1, ptr noundef %14)
  %48 = add i32 %45, %.sink105
  %49 = icmp ult i32 %48, %5
  br i1 %49, label %.lr.ph, label %.thread, !llvm.loop !6

.thread:                                          ; preds = %44, %.lr.ph, %.lr.ph, %35, %4, %23, %29, %32
  ret i32 %5
}